target datalayout = "e-m:e-p270:32:32-p271:32:32-p272:64:64-i64:64-i128:128-f80:128-n8:16:32:64-S128"
target triple = "x86_64-pc-linux-gnu"

%struct.__jmp_buf_tag = type { [8 x i64], i32, %struct.__sigset_t }
%struct.__sigset_t = type { [16 x i64] }
%struct.png_image = type { ptr, i32, i32, i32, i32, i32, i32, i32, [64 x i8] }
%struct.png_control = type { ptr, ptr, ptr, ptr, i64, i8 }

; Function Attrs: nounwind uwtable
define hidden i32 @png_safe_execute(ptr noundef %0, ptr noundef %1, ptr noundef %2) #1 {
  %4 = alloca i32, align 4
  %5 = alloca ptr, align 8
  %6 = alloca ptr, align 8
  %7 = alloca ptr, align 8
  %8 = alloca ptr, align 8
  %9 = alloca [1 x %struct.__jmp_buf_tag], align 16
  %10 = alloca i32, align 4
  store ptr %0, ptr %5, align 8
  store ptr %1, ptr %6, align 8
  store ptr %2, ptr %7, align 8
  %11 = load ptr, ptr %5, align 8
  %12 = getelementptr inbounds %struct.png_image, ptr %11, i32 0, i32 0
  %13 = load ptr, ptr %12, align 8
  %14 = getelementptr inbounds %struct.png_control, ptr %13, i32 0, i32 2
  %15 = load ptr, ptr %14, align 8
  store ptr %15, ptr %8, align 8
  %16 = getelementptr inbounds [1 x %struct.__jmp_buf_tag], ptr %9, i64 0, i64 0
  %17 = call i32 @_setjmp(ptr noundef %16) #10
  %18 = icmp eq i32 %17, 0
  br i1 %18, label %19, label %34

19:                                               ; preds = %3
  %20 = getelementptr inbounds [1 x %struct.__jmp_buf_tag], ptr %9, i64 0, i64 0
  %21 = load ptr, ptr %5, align 8
  %22 = getelementptr inbounds %struct.png_image, ptr %21, i32 0, i32 0
  %23 = load ptr, ptr %22, align 8
  %24 = getelementptr inbounds %struct.png_control, ptr %23, i32 0, i32 2
  store ptr %20, ptr %24, align 8
  %25 = load ptr, ptr %6, align 8
  %26 = load ptr, ptr %7, align 8
  %27 = call i32 %25(ptr noundef %26)
  store i32 %27, ptr %10, align 4
  %28 = load ptr, ptr %8, align 8
  %29 = load ptr, ptr %5, align 8
  %30 = getelementptr inbounds %struct.png_image, ptr %29, i32 0, i32 0
  %31 = load ptr, ptr %30, align 8
  %32 = getelementptr inbounds %struct.png_control, ptr %31, i32 0, i32 2
  store ptr %28, ptr %32, align 8
  %33 = load i32, ptr %10, align 4
  store i32 %33, ptr %4, align 4
  br label %41

34:                                               ; preds = %3
  %35 = load ptr, ptr %8, align 8
  %36 = load ptr, ptr %5, align 8
  %37 = getelementptr inbounds %struct.png_image, ptr %36, i32 0, i32 0
  %38 = load ptr, ptr %37, align 8
  %39 = getelementptr inbounds %struct.png_control, ptr %38, i32 0, i32 2
  store ptr %35, ptr %39, align 8
  %40 = load ptr, ptr %5, align 8
  call void @png_image_free(ptr noundef %40)
  store i32 0, ptr %4, align 4
  br label %41

41:                                               ; preds = %34, %19
  %42 = load i32, ptr %4, align 4
  ret i32 %42
}