; Function Attrs: nounwind uwtable
define hidden i32 @png_safe_execute(ptr noundef %0, ptr nocapture noundef readonly %1, ptr noundef %2) local_unnamed_addr #3 {
  %4 = alloca [1 x %struct.__jmp_buf_tag], align 16
  %5 = load ptr, ptr %0, align 8
  %6 = getelementptr inbounds i8, ptr %5, i64 16
  %7 = load ptr, ptr %6, align 8
  %8 = call i32 @_setjmp(ptr noundef nonnull %4) #20
  %9 = icmp eq i32 %8, 0
  %10 = load ptr, ptr %0, align 8
  %11 = getelementptr inbounds i8, ptr %10, i64 16
  br i1 %9, label %12, label %16

12:                                               ; preds = %3
  store ptr %4, ptr %11, align 8
  %13 = call i32 %1(ptr noundef %2) #17
  %14 = load ptr, ptr %0, align 8
  %15 = getelementptr inbounds i8, ptr %14, i64 16
  store ptr %7, ptr %15, align 8
  br label %17

16:                                               ; preds = %3
  store ptr %7, ptr %11, align 8
  call void @png_image_free(ptr noundef nonnull %0) #17
  br label %17

17:                                               ; preds = %16, %12
  %.0 = phi i32 [ %13, %12 ], [ 0, %16 ]
  ret i32 %.0
}